ARM GAS  C:\Users\Lloyd\AppData\Local\Temp\ccEl5tEh.s 			page 1


   1              		.syntax unified
   2              		.cpu cortex-m3
   3              		.fpu softvfp
   4              		.eabi_attribute 20, 1
   5              		.eabi_attribute 21, 1
   6              		.eabi_attribute 23, 3
   7              		.eabi_attribute 24, 1
   8              		.eabi_attribute 25, 1
   9              		.eabi_attribute 26, 1
  10              		.eabi_attribute 30, 6
  11              		.eabi_attribute 34, 1
  12              		.eabi_attribute 18, 4
  13              		.thumb
  14              		.file	"base_motion.c"
  15              		.text
  16              	.Ltext0:
  17              		.cfi_sections	.debug_frame
  18              		.section	.text.baseMotion_Start,"ax",%progbits
  19              		.align	2
  20              		.global	baseMotion_Start
  21              		.thumb
  22              		.thumb_func
  23              		.type	baseMotion_Start, %function
  24              	baseMotion_Start:
  25              	.LFB56:
  26              		.file 1 ".\\base_motion.c"
   1:.\base_motion.c **** /*
   2:.\base_motion.c **** BotPsoc - Low level logic and drivers for SRSPiBot Robot
   3:.\base_motion.c **** Copyright (C) 2013  Lloyd Moore, CyberData Corporation
   4:.\base_motion.c **** 
   5:.\base_motion.c **** This program is free software: you can redistribute it and/or modify
   6:.\base_motion.c **** it under the terms of the GNU General Public License as published by
   7:.\base_motion.c **** the Free Software Foundation, either version 3 of the License, or
   8:.\base_motion.c **** (at your option) any later version.
   9:.\base_motion.c **** 
  10:.\base_motion.c **** This program is distributed in the hope that it will be useful,
  11:.\base_motion.c **** but WITHOUT ANY WARRANTY; without even the implied warranty of
  12:.\base_motion.c **** MERCHANTABILITY or FITNESS FOR A PARTICULAR PURPOSE.  See the
  13:.\base_motion.c **** GNU General Public License for more details.
  14:.\base_motion.c **** 
  15:.\base_motion.c **** You should have received a copy of the GNU General Public License
  16:.\base_motion.c **** along with this program.  If not, see <http://www.gnu.org/licenses/>.
  17:.\base_motion.c **** 
  18:.\base_motion.c **** This software has been developed and released by Lloyd Moore, owner of
  19:.\base_motion.c **** CyberData Corporation as part of our R&D efforts. For
  20:.\base_motion.c **** questions and comments on this code I can be reached at:
  21:.\base_motion.c **** e-mail: Lloyd@CyberData-Robotics.com
  22:.\base_motion.c **** Web site: http://www.CyberData-Robotics.com
  23:.\base_motion.c **** */
  24:.\base_motion.c **** 
  25:.\base_motion.c **** #include "base_motion.h"
  26:.\base_motion.c **** 
  27:.\base_motion.c **** //Private function prototypes
  28:.\base_motion.c **** void baseMotion_SetMotorControl(uint8_t motorCommand);
  29:.\base_motion.c **** 
  30:.\base_motion.c **** void baseMotion_Start()
  31:.\base_motion.c **** {
ARM GAS  C:\Users\Lloyd\AppData\Local\Temp\ccEl5tEh.s 			page 2


  27              		.loc 1 31 0
  28              		.cfi_startproc
  29              		@ args = 0, pretend = 0, frame = 0
  30              		@ frame_needed = 1, uses_anonymous_args = 0
  31 0000 80B5     		push	{r7, lr}
  32              	.LCFI0:
  33              		.cfi_def_cfa_offset 8
  34              		.cfi_offset 7, -8
  35              		.cfi_offset 14, -4
  36 0002 00AF     		add	r7, sp, #0
  37              	.LCFI1:
  38              		.cfi_def_cfa_register 7
  32:.\base_motion.c ****     baseMotion_SetMotorControl(MC_BRAKE);
  39              		.loc 1 32 0
  40 0004 4FF00000 		mov	r0, #0
  41 0008 FFF7FEFF 		bl	baseMotion_SetMotorControl
  33:.\base_motion.c ****     LMotorPwm_Start();
  42              		.loc 1 33 0
  43 000c FFF7FEFF 		bl	LMotorPwm_Start
  34:.\base_motion.c ****     RMotorPwm_Start();
  44              		.loc 1 34 0
  45 0010 FFF7FEFF 		bl	RMotorPwm_Start
  35:.\base_motion.c **** }
  46              		.loc 1 35 0
  47 0014 80BD     		pop	{r7, pc}
  48              		.cfi_endproc
  49              	.LFE56:
  50              		.size	baseMotion_Start, .-baseMotion_Start
  51 0016 00BF     		.section	.text.baseMotion_Update,"ax",%progbits
  52              		.align	2
  53              		.global	baseMotion_Update
  54              		.thumb
  55              		.thumb_func
  56              		.type	baseMotion_Update, %function
  57              	baseMotion_Update:
  58              	.LFB57:
  36:.\base_motion.c **** 
  37:.\base_motion.c **** 
  38:.\base_motion.c **** void baseMotion_Update(uint8_t motorCommand, uint16_t rightSpeed, uint16_t leftSpeed)
  39:.\base_motion.c **** {
  59              		.loc 1 39 0
  60              		.cfi_startproc
  61              		@ args = 0, pretend = 0, frame = 8
  62              		@ frame_needed = 1, uses_anonymous_args = 0
  63 0000 80B5     		push	{r7, lr}
  64              	.LCFI2:
  65              		.cfi_def_cfa_offset 8
  66              		.cfi_offset 7, -8
  67              		.cfi_offset 14, -4
  68 0002 82B0     		sub	sp, sp, #8
  69              	.LCFI3:
  70              		.cfi_def_cfa_offset 16
  71 0004 00AF     		add	r7, sp, #0
  72              	.LCFI4:
  73              		.cfi_def_cfa_register 7
  74 0006 1346     		mov	r3, r2
  75 0008 0246     		mov	r2, r0
ARM GAS  C:\Users\Lloyd\AppData\Local\Temp\ccEl5tEh.s 			page 3


  76 000a FA71     		strb	r2, [r7, #7]
  77 000c 0A46     		mov	r2, r1	@ movhi
  78 000e BA80     		strh	r2, [r7, #4]	@ movhi
  79 0010 7B80     		strh	r3, [r7, #2]	@ movhi
  40:.\base_motion.c ****     baseMotion_SetMotorControl(motorCommand);
  80              		.loc 1 40 0
  81 0012 FB79     		ldrb	r3, [r7, #7]	@ zero_extendqisi2
  82 0014 1846     		mov	r0, r3
  83 0016 FFF7FEFF 		bl	baseMotion_SetMotorControl
  41:.\base_motion.c ****     LMotorPwm_WriteCompare(leftSpeed);
  84              		.loc 1 41 0
  85 001a 7B88     		ldrh	r3, [r7, #2]
  86 001c 1846     		mov	r0, r3
  87 001e FFF7FEFF 		bl	LMotorPwm_WriteCompare
  42:.\base_motion.c ****     RMotorPwm_WriteCompare(rightSpeed);
  88              		.loc 1 42 0
  89 0022 BB88     		ldrh	r3, [r7, #4]
  90 0024 1846     		mov	r0, r3
  91 0026 FFF7FEFF 		bl	RMotorPwm_WriteCompare
  43:.\base_motion.c **** }
  92              		.loc 1 43 0
  93 002a 07F10807 		add	r7, r7, #8
  94 002e BD46     		mov	sp, r7
  95 0030 80BD     		pop	{r7, pc}
  96              		.cfi_endproc
  97              	.LFE57:
  98              		.size	baseMotion_Update, .-baseMotion_Update
  99              		.section	.text.baseMotion_SetMotorControl,"ax",%progbits
 100              		.align	2
 101              		.global	baseMotion_SetMotorControl
 102              		.thumb
 103              		.thumb_func
 104              		.type	baseMotion_SetMotorControl, %function
 105              	baseMotion_SetMotorControl:
 106              	.LFB58:
  44:.\base_motion.c **** 
  45:.\base_motion.c **** 
  46:.\base_motion.c **** void baseMotion_SetMotorControl(uint8_t motorCommand)
  47:.\base_motion.c **** {
 107              		.loc 1 47 0
 108              		.cfi_startproc
 109              		@ args = 0, pretend = 0, frame = 8
 110              		@ frame_needed = 1, uses_anonymous_args = 0
 111 0000 80B5     		push	{r7, lr}
 112              	.LCFI5:
 113              		.cfi_def_cfa_offset 8
 114              		.cfi_offset 7, -8
 115              		.cfi_offset 14, -4
 116 0002 82B0     		sub	sp, sp, #8
 117              	.LCFI6:
 118              		.cfi_def_cfa_offset 16
 119 0004 00AF     		add	r7, sp, #0
 120              	.LCFI7:
 121              		.cfi_def_cfa_register 7
 122 0006 0346     		mov	r3, r0
 123 0008 FB71     		strb	r3, [r7, #7]
  48:.\base_motion.c ****     static uint8 motorControlBits[MC_END] = 
ARM GAS  C:\Users\Lloyd\AppData\Local\Temp\ccEl5tEh.s 			page 4


  49:.\base_motion.c ****     {
  50:.\base_motion.c ****         0x0a,                               //MC_BRAKE - Place both motors in the brake/shorted sta
  51:.\base_motion.c ****         0x05,                               //MC_FORWARD - Drive generally forward, motor speeds wi
  52:.\base_motion.c ****         0x00,                               //MC_BACKWARD - Drive generally backward, motor speeds 
  53:.\base_motion.c ****         0x09,                               //MC_LEFT - Turn hard left, left motor in brake, right 
  54:.\base_motion.c ****         0x06,                               //MC_RIGHT - Turn hard right, left motor driving, right
  55:.\base_motion.c ****         0x01,                               //MC_PIVOT_LEFT - Pivot in place, left motor in reverse
  56:.\base_motion.c ****         0x04,                               //MC_PIVOT_RIGHT - Pivot in place. left motor in forwar
  57:.\base_motion.c ****     };
  58:.\base_motion.c ****     
  59:.\base_motion.c ****     if(motorCommand >= MC_END) motorCommand = MC_BRAKE;     //If something is wrong then stop!
 124              		.loc 1 59 0
 125 000a FB79     		ldrb	r3, [r7, #7]	@ zero_extendqisi2
 126 000c 062B     		cmp	r3, #6
 127 000e 02D9     		bls	.L4
 128              		.loc 1 59 0 is_stmt 0 discriminator 1
 129 0010 4FF00003 		mov	r3, #0
 130 0014 FB71     		strb	r3, [r7, #7]
 131              	.L4:
  60:.\base_motion.c ****     MotorControlReg_Write(motorControlBits[motorCommand]);
 132              		.loc 1 60 0 is_stmt 1
 133 0016 FA79     		ldrb	r2, [r7, #7]	@ zero_extendqisi2
 134 0018 40F20003 		movw	r3, #:lower16:motorControlBits.5806
 135 001c C0F20003 		movt	r3, #:upper16:motorControlBits.5806
 136 0020 9B5C     		ldrb	r3, [r3, r2]	@ zero_extendqisi2
 137 0022 1846     		mov	r0, r3
 138 0024 FFF7FEFF 		bl	MotorControlReg_Write
  61:.\base_motion.c **** }
 139              		.loc 1 61 0
 140 0028 07F10807 		add	r7, r7, #8
 141 002c BD46     		mov	sp, r7
 142 002e 80BD     		pop	{r7, pc}
 143              		.cfi_endproc
 144              	.LFE58:
 145              		.size	baseMotion_SetMotorControl, .-baseMotion_SetMotorControl
 146              		.data
 147              		.align	2
 148              		.type	motorControlBits.5806, %object
 149              		.size	motorControlBits.5806, 7
 150              	motorControlBits.5806:
 151 0000 0A       		.byte	10
 152 0001 05       		.byte	5
 153 0002 00       		.byte	0
 154 0003 09       		.byte	9
 155 0004 06       		.byte	6
 156 0005 01       		.byte	1
 157 0006 04       		.byte	4
 158 0007 00       		.text
 159              	.Letext0:
 160              		.file 2 "c:\\program files (x86)\\cypress\\psoc creator\\3.0\\psoc creator\\import\\gnu_cs\\arm\\4
 161              		.file 3 "./Generated_Source/PSoC5/cytypes.h"
 162              		.file 4 ".\\../../../Common/ringcoms.h"
 163              		.file 5 "./Generated_Source/PSoC5/core_cm3.h"