ARM GAS  C:\Users\lloyd\AppData\Local\Temp\ccoQPSjg.s 			page 1


   1              		.syntax unified
   2              		.cpu cortex-m3
   3              		.fpu softvfp
   4              		.eabi_attribute 20, 1
   5              		.eabi_attribute 21, 1
   6              		.eabi_attribute 23, 3
   7              		.eabi_attribute 24, 1
   8              		.eabi_attribute 25, 1
   9              		.eabi_attribute 26, 1
  10              		.eabi_attribute 30, 6
  11              		.eabi_attribute 34, 1
  12              		.eabi_attribute 18, 4
  13              		.thumb
  14              		.file	"spi_ring.c"
  15              		.text
  16              	.Ltext0:
  17              		.cfi_sections	.debug_frame
  18              		.comm	spiDmaTransmitChannel,1,1
  19              		.comm	spiDmaReceiveChannel,1,1
  20              		.comm	spiDmaTransmitTD,1,4
  21              		.comm	spiDmaReceiveTD,1,4
  22              		.section	.text.ringComs_Start,"ax",%progbits
  23              		.align	2
  24              		.global	ringComs_Start
  25              		.thumb
  26              		.thumb_func
  27              		.type	ringComs_Start, %function
  28              	ringComs_Start:
  29              	.LFB56:
  30              		.file 1 ".\\spi_ring.c"
   1:.\spi_ring.c  **** /*
   2:.\spi_ring.c  **** BotPsoc - Low level logic and drivers for SRSPiBot Robot
   3:.\spi_ring.c  **** Copyright (C) 2013  Lloyd Moore, CyberData Corporation
   4:.\spi_ring.c  **** 
   5:.\spi_ring.c  **** This program is free software: you can redistribute it and/or modify
   6:.\spi_ring.c  **** it under the terms of the GNU General Public License as published by
   7:.\spi_ring.c  **** the Free Software Foundation, either version 3 of the License, or
   8:.\spi_ring.c  **** (at your option) any later version.
   9:.\spi_ring.c  **** 
  10:.\spi_ring.c  **** This program is distributed in the hope that it will be useful,
  11:.\spi_ring.c  **** but WITHOUT ANY WARRANTY; without even the implied warranty of
  12:.\spi_ring.c  **** MERCHANTABILITY or FITNESS FOR A PARTICULAR PURPOSE.  See the
  13:.\spi_ring.c  **** GNU General Public License for more details.
  14:.\spi_ring.c  **** 
  15:.\spi_ring.c  **** You should have received a copy of the GNU General Public License
  16:.\spi_ring.c  **** along with this program.  If not, see <http://www.gnu.org/licenses/>.
  17:.\spi_ring.c  **** 
  18:.\spi_ring.c  **** This software has been developed and released by Lloyd Moore, owner of
  19:.\spi_ring.c  **** CyberData Corporation as part of our R&D efforts. For
  20:.\spi_ring.c  **** questions and comments on this code I can be reached at:
  21:.\spi_ring.c  **** e-mail: Lloyd@CyberData-Robotics.com
  22:.\spi_ring.c  **** Web site: http://www.CyberData-Robotics.com
  23:.\spi_ring.c  **** */
  24:.\spi_ring.c  **** 
  25:.\spi_ring.c  **** #include "bot_psoc.h"
  26:.\spi_ring.c  **** #include "spi_ring.h"
  27:.\spi_ring.c  **** 
ARM GAS  C:\Users\lloyd\AppData\Local\Temp\ccoQPSjg.s 			page 2


  28:.\spi_ring.c  **** //Private function prototypes
  29:.\spi_ring.c  **** void ringComs_ConfigureDMA();                               //Configure the DMA for the SPI transfe
  30:.\spi_ring.c  **** 
  31:.\spi_ring.c  **** //Private variables
  32:.\spi_ring.c  **** uint8 spiDmaTransmitChannel;                                //DMA handle for the SPI transmit opera
  33:.\spi_ring.c  **** uint8 spiDmaReceiveChannel;                                 //DMA handle for the SPI receive operat
  34:.\spi_ring.c  **** 
  35:.\spi_ring.c  **** uint8 spiDmaTransmitTD[1];                                  //Transfer descriptor array for spi tra
  36:.\spi_ring.c  **** uint8 spiDmaReceiveTD[1];                                   //Transfer descriptor array for the spi
  37:.\spi_ring.c  **** 
  38:.\spi_ring.c  **** void ringComs_Start()
  39:.\spi_ring.c  **** {
  31              		.loc 1 39 0
  32              		.cfi_startproc
  33              		@ args = 0, pretend = 0, frame = 0
  34              		@ frame_needed = 1, uses_anonymous_args = 0
  35 0000 80B5     		push	{r7, lr}
  36              	.LCFI0:
  37              		.cfi_def_cfa_offset 8
  38              		.cfi_offset 7, -8
  39              		.cfi_offset 14, -4
  40 0002 00AF     		add	r7, sp, #0
  41              	.LCFI1:
  42              		.cfi_def_cfa_register 7
  40:.\spi_ring.c  ****     //Clear the global variables for the spi ring
  41:.\spi_ring.c  ****     memset(&g_spiRing, 0x00, sizeof(g_spiRing));
  43              		.loc 1 41 0
  44 0004 40F20000 		movw	r0, #:lower16:g_spiRing
  45 0008 C0F20000 		movt	r0, #:upper16:g_spiRing
  46 000c 4FF00001 		mov	r1, #0
  47 0010 4FF04002 		mov	r2, #64
  48 0014 FFF7FEFF 		bl	memset
  42:.\spi_ring.c  ****     g_spiReady = false;
  49              		.loc 1 42 0
  50 0018 40F20003 		movw	r3, #:lower16:g_spiReady
  51 001c C0F20003 		movt	r3, #:upper16:g_spiReady
  52 0020 4FF00002 		mov	r2, #0
  53 0024 1A70     		strb	r2, [r3, #0]
  43:.\spi_ring.c  ****     
  44:.\spi_ring.c  ****     PiComs_Start();
  54              		.loc 1 44 0
  55 0026 FFF7FEFF 		bl	PiComs_Start
  45:.\spi_ring.c  ****     SpiXferDone_Start();
  56              		.loc 1 45 0
  57 002a FFF7FEFF 		bl	SpiXferDone_Start
  46:.\spi_ring.c  ****    
  47:.\spi_ring.c  ****     //Load the header/footer data into the sensory side
  48:.\spi_ring.c  ****     g_spiRing.sensory.sensoryHeader = HEADER_VALUE;
  58              		.loc 1 48 0
  59 002e 40F20003 		movw	r3, #:lower16:g_spiRing
  60 0032 C0F20003 		movt	r3, #:upper16:g_spiRing
  61 0036 45F65A22 		movw	r2, #23130
  62 003a CAF2A552 		movt	r2, 42405
  63 003e 1A60     		str	r2, [r3, #0]
  49:.\spi_ring.c  ****     g_spiRing.sensory.sensoryFooter = FOOTER_VALUE;
  64              		.loc 1 49 0
  65 0040 40F20003 		movw	r3, #:lower16:g_spiRing
ARM GAS  C:\Users\lloyd\AppData\Local\Temp\ccoQPSjg.s 			page 3


  66 0044 C0F20003 		movt	r3, #:upper16:g_spiRing
  67 0048 4FF0FF32 		mov	r2, #-1
  68 004c DA61     		str	r2, [r3, #28]
  50:.\spi_ring.c  ****     
  51:.\spi_ring.c  ****     //Just load some temporary data right now for testing
  52:.\spi_ring.c  ****     g_spiRing.sensory.irDistance = 0x0023;
  69              		.loc 1 52 0
  70 004e 40F20003 		movw	r3, #:lower16:g_spiRing
  71 0052 C0F20003 		movt	r3, #:upper16:g_spiRing
  72 0056 4FF02302 		mov	r2, #35
  73 005a 9A80     		strh	r2, [r3, #4]	@ movhi
  53:.\spi_ring.c  ****     g_spiRing.sensory.leftBumpForce = 0x0025;
  74              		.loc 1 53 0
  75 005c 40F20003 		movw	r3, #:lower16:g_spiRing
  76 0060 C0F20003 		movt	r3, #:upper16:g_spiRing
  77 0064 4FF02502 		mov	r2, #37
  78 0068 DA80     		strh	r2, [r3, #6]	@ movhi
  54:.\spi_ring.c  ****     g_spiRing.sensory.rightBumpForce = 0x00a5;
  79              		.loc 1 54 0
  80 006a 40F20003 		movw	r3, #:lower16:g_spiRing
  81 006e C0F20003 		movt	r3, #:upper16:g_spiRing
  82 0072 4FF0A502 		mov	r2, #165
  83 0076 1A81     		strh	r2, [r3, #8]	@ movhi
  55:.\spi_ring.c  ****     g_spiRing.sensory.leftBumpField = 0x00b4;
  84              		.loc 1 55 0
  85 0078 40F20003 		movw	r3, #:lower16:g_spiRing
  86 007c C0F20003 		movt	r3, #:upper16:g_spiRing
  87 0080 4FF0B402 		mov	r2, #180
  88 0084 5A81     		strh	r2, [r3, #10]	@ movhi
  56:.\spi_ring.c  ****  
  57:.\spi_ring.c  ****     ringComs_ConfigureDMA();
  89              		.loc 1 57 0
  90 0086 FFF7FEFF 		bl	ringComs_ConfigureDMA
  58:.\spi_ring.c  ****     ringComs_DoTransfer();   
  91              		.loc 1 58 0
  92 008a FFF7FEFF 		bl	ringComs_DoTransfer
  59:.\spi_ring.c  **** }
  93              		.loc 1 59 0
  94 008e 80BD     		pop	{r7, pc}
  95              		.cfi_endproc
  96              	.LFE56:
  97              		.size	ringComs_Start, .-ringComs_Start
  98              		.section	.text.ringComs_ConfigureDMA,"ax",%progbits
  99              		.align	2
 100              		.global	ringComs_ConfigureDMA
 101              		.thumb
 102              		.thumb_func
 103              		.type	ringComs_ConfigureDMA, %function
 104              	ringComs_ConfigureDMA:
 105              	.LFB57:
  60:.\spi_ring.c  **** 
  61:.\spi_ring.c  **** void ringComs_ConfigureDMA()
  62:.\spi_ring.c  **** {
 106              		.loc 1 62 0
 107              		.cfi_startproc
 108              		@ args = 0, pretend = 0, frame = 8
 109              		@ frame_needed = 1, uses_anonymous_args = 0
ARM GAS  C:\Users\lloyd\AppData\Local\Temp\ccoQPSjg.s 			page 4


 110 0000 80B5     		push	{r7, lr}
 111              	.LCFI2:
 112              		.cfi_def_cfa_offset 8
 113              		.cfi_offset 7, -8
 114              		.cfi_offset 14, -4
 115 0002 82B0     		sub	sp, sp, #8
 116              	.LCFI3:
 117              		.cfi_def_cfa_offset 16
 118 0004 00AF     		add	r7, sp, #0
 119              	.LCFI4:
 120              		.cfi_def_cfa_register 7
  63:.\spi_ring.c  ****     //Configure the transmit DMA channel
  64:.\spi_ring.c  ****     uint8 *pTransmitStartAddress = (uint8*)(&g_spiRing.sensory.sensoryHeader);     //Start one byte
 121              		.loc 1 64 0
 122 0006 40F20003 		movw	r3, #:lower16:g_spiRing
 123 000a C0F20003 		movt	r3, #:upper16:g_spiRing
 124 000e 7B60     		str	r3, [r7, #4]
  65:.\spi_ring.c  ****     ++pTransmitStartAddress;
 125              		.loc 1 65 0
 126 0010 7B68     		ldr	r3, [r7, #4]
 127 0012 03F10103 		add	r3, r3, #1
 128 0016 7B60     		str	r3, [r7, #4]
  66:.\spi_ring.c  ****     
  67:.\spi_ring.c  ****     spiDmaTransmitChannel = SpiXmitDma_DmaInitialize(SPI_DMA_BYTES_PER_BURST, SPI_DMA_REQUEST_PER_B
  68:.\spi_ring.c  ****         HI16(&g_spiRing.effectors), HI16(PiComs_TXDATA_PTR));
 129              		.loc 1 68 0
 130 0018 484B     		ldr	r3, .L3
 131 001a 4FEA1343 		lsr	r3, r3, #16
  67:.\spi_ring.c  ****     spiDmaTransmitChannel = SpiXmitDma_DmaInitialize(SPI_DMA_BYTES_PER_BURST, SPI_DMA_REQUEST_PER_B
 132              		.loc 1 67 0
 133 001e 9BB2     		uxth	r3, r3
 134 0020 4FF00100 		mov	r0, #1
 135 0024 4FF00101 		mov	r1, #1
 136 0028 1A46     		mov	r2, r3
 137 002a 4FF48043 		mov	r3, #16384
 138 002e FFF7FEFF 		bl	SpiXmitDma_DmaInitialize
 139 0032 0346     		mov	r3, r0
 140 0034 1A46     		mov	r2, r3
 141 0036 40F20003 		movw	r3, #:lower16:spiDmaTransmitChannel
 142 003a C0F20003 		movt	r3, #:upper16:spiDmaTransmitChannel
 143 003e 1A70     		strb	r2, [r3, #0]
  69:.\spi_ring.c  ****     spiDmaTransmitTD[0] = CyDmaTdAllocate();
 144              		.loc 1 69 0
 145 0040 FFF7FEFF 		bl	CyDmaTdAllocate
 146 0044 0346     		mov	r3, r0
 147 0046 1A46     		mov	r2, r3
 148 0048 40F20003 		movw	r3, #:lower16:spiDmaTransmitTD
 149 004c C0F20003 		movt	r3, #:upper16:spiDmaTransmitTD
 150 0050 1A70     		strb	r2, [r3, #0]
  70:.\spi_ring.c  ****     CyDmaTdSetConfiguration(spiDmaTransmitTD[0], sizeof(SensoryMembers) - 1, DMA_DISABLE_TD, TD_INC
 151              		.loc 1 70 0
 152 0052 40F20003 		movw	r3, #:lower16:spiDmaTransmitTD
 153 0056 C0F20003 		movt	r3, #:upper16:spiDmaTransmitTD
 154 005a 1B78     		ldrb	r3, [r3, #0]	@ zero_extendqisi2
 155 005c 1846     		mov	r0, r3
 156 005e 4FF01F01 		mov	r1, #31
 157 0062 4FF0FE02 		mov	r2, #254
ARM GAS  C:\Users\lloyd\AppData\Local\Temp\ccoQPSjg.s 			page 5


 158 0066 4FF00103 		mov	r3, #1
 159 006a FFF7FEFF 		bl	CyDmaTdSetConfiguration
  71:.\spi_ring.c  ****     CyDmaTdSetAddress(spiDmaTransmitTD[0], LO16((uint32)(pTransmitStartAddress)), LO16((uint32)PiCo
 160              		.loc 1 71 0
 161 006e 40F20003 		movw	r3, #:lower16:spiDmaTransmitTD
 162 0072 C0F20003 		movt	r3, #:upper16:spiDmaTransmitTD
 163 0076 1A78     		ldrb	r2, [r3, #0]	@ zero_extendqisi2
 164 0078 7B68     		ldr	r3, [r7, #4]
 165 007a 9BB2     		uxth	r3, r3
 166 007c 1046     		mov	r0, r2
 167 007e 1946     		mov	r1, r3
 168 0080 46F24842 		movw	r2, #25672
 169 0084 FFF7FEFF 		bl	CyDmaTdSetAddress
  72:.\spi_ring.c  ****     CyDmaChSetInitialTd(spiDmaTransmitChannel, spiDmaTransmitTD[0]);
 170              		.loc 1 72 0
 171 0088 40F20003 		movw	r3, #:lower16:spiDmaTransmitChannel
 172 008c C0F20003 		movt	r3, #:upper16:spiDmaTransmitChannel
 173 0090 1A78     		ldrb	r2, [r3, #0]	@ zero_extendqisi2
 174 0092 40F20003 		movw	r3, #:lower16:spiDmaTransmitTD
 175 0096 C0F20003 		movt	r3, #:upper16:spiDmaTransmitTD
 176 009a 1B78     		ldrb	r3, [r3, #0]	@ zero_extendqisi2
 177 009c 1046     		mov	r0, r2
 178 009e 1946     		mov	r1, r3
 179 00a0 FFF7FEFF 		bl	CyDmaChSetInitialTd
  73:.\spi_ring.c  ****     
  74:.\spi_ring.c  ****     //Configure the receive DMA channel
  75:.\spi_ring.c  ****     spiDmaReceiveChannel = SpiRcvDma_DmaInitialize(SPI_DMA_BYTES_PER_BURST, SPI_DMA_REQUEST_PER_BUR
  76:.\spi_ring.c  ****         HI16(PiComs_RXDATA_PTR), HI16(&g_spiRing.sensory));
 180              		.loc 1 76 0
 181 00a4 40F20003 		movw	r3, #:lower16:g_spiRing
 182 00a8 C0F20003 		movt	r3, #:upper16:g_spiRing
 183 00ac 4FEA1343 		lsr	r3, r3, #16
  75:.\spi_ring.c  ****     spiDmaReceiveChannel = SpiRcvDma_DmaInitialize(SPI_DMA_BYTES_PER_BURST, SPI_DMA_REQUEST_PER_BUR
 184              		.loc 1 75 0
 185 00b0 9BB2     		uxth	r3, r3
 186 00b2 4FF00100 		mov	r0, #1
 187 00b6 4FF00101 		mov	r1, #1
 188 00ba 4FF48042 		mov	r2, #16384
 189 00be FFF7FEFF 		bl	SpiRcvDma_DmaInitialize
 190 00c2 0346     		mov	r3, r0
 191 00c4 1A46     		mov	r2, r3
 192 00c6 40F20003 		movw	r3, #:lower16:spiDmaReceiveChannel
 193 00ca C0F20003 		movt	r3, #:upper16:spiDmaReceiveChannel
 194 00ce 1A70     		strb	r2, [r3, #0]
  77:.\spi_ring.c  ****     spiDmaReceiveTD[0] = CyDmaTdAllocate();
 195              		.loc 1 77 0
 196 00d0 FFF7FEFF 		bl	CyDmaTdAllocate
 197 00d4 0346     		mov	r3, r0
 198 00d6 1A46     		mov	r2, r3
 199 00d8 40F20003 		movw	r3, #:lower16:spiDmaReceiveTD
 200 00dc C0F20003 		movt	r3, #:upper16:spiDmaReceiveTD
 201 00e0 1A70     		strb	r2, [r3, #0]
  78:.\spi_ring.c  ****     CyDmaTdSetConfiguration(spiDmaReceiveTD[0], sizeof(MotorMembers), DMA_DISABLE_TD, 
 202              		.loc 1 78 0
 203 00e2 40F20003 		movw	r3, #:lower16:spiDmaReceiveTD
 204 00e6 C0F20003 		movt	r3, #:upper16:spiDmaReceiveTD
 205 00ea 1B78     		ldrb	r3, [r3, #0]	@ zero_extendqisi2
ARM GAS  C:\Users\lloyd\AppData\Local\Temp\ccoQPSjg.s 			page 6


 206 00ec 1846     		mov	r0, r3
 207 00ee 4FF02001 		mov	r1, #32
 208 00f2 4FF0FE02 		mov	r2, #254
 209 00f6 4FF00603 		mov	r3, #6
 210 00fa FFF7FEFF 		bl	CyDmaTdSetConfiguration
  79:.\spi_ring.c  ****         (TD_INC_DST_ADR | SpiRcvDma__TD_TERMOUT_EN));
  80:.\spi_ring.c  ****     CyDmaTdSetAddress(spiDmaReceiveTD[0], LO16((uint32)PiComs_RXDATA_PTR), LO16((uint32)&g_spiRing.
 211              		.loc 1 80 0
 212 00fe 40F20003 		movw	r3, #:lower16:spiDmaReceiveTD
 213 0102 C0F20003 		movt	r3, #:upper16:spiDmaReceiveTD
 214 0106 1A78     		ldrb	r2, [r3, #0]	@ zero_extendqisi2
 215 0108 0C4B     		ldr	r3, .L3
 216 010a 9BB2     		uxth	r3, r3
 217 010c 1046     		mov	r0, r2
 218 010e 46F25841 		movw	r1, #25688
 219 0112 1A46     		mov	r2, r3
 220 0114 FFF7FEFF 		bl	CyDmaTdSetAddress
  81:.\spi_ring.c  ****     CyDmaChSetInitialTd(spiDmaReceiveChannel, spiDmaReceiveTD[0]);
 221              		.loc 1 81 0
 222 0118 40F20003 		movw	r3, #:lower16:spiDmaReceiveChannel
 223 011c C0F20003 		movt	r3, #:upper16:spiDmaReceiveChannel
 224 0120 1A78     		ldrb	r2, [r3, #0]	@ zero_extendqisi2
 225 0122 40F20003 		movw	r3, #:lower16:spiDmaReceiveTD
 226 0126 C0F20003 		movt	r3, #:upper16:spiDmaReceiveTD
 227 012a 1B78     		ldrb	r3, [r3, #0]	@ zero_extendqisi2
 228 012c 1046     		mov	r0, r2
 229 012e 1946     		mov	r1, r3
 230 0130 FFF7FEFF 		bl	CyDmaChSetInitialTd
  82:.\spi_ring.c  **** 
  83:.\spi_ring.c  ****     //Note: The transfer descriptors allocated here will never be returned, they are reused for the
  84:.\spi_ring.c  ****     //lifetime of the program.
  85:.\spi_ring.c  **** }
 231              		.loc 1 85 0
 232 0134 07F10807 		add	r7, r7, #8
 233 0138 BD46     		mov	sp, r7
 234 013a 80BD     		pop	{r7, pc}
 235              	.L4:
 236              		.align	2
 237              	.L3:
 238 013c 20000000 		.word	g_spiRing+32
 239              		.cfi_endproc
 240              	.LFE57:
 241              		.size	ringComs_ConfigureDMA, .-ringComs_ConfigureDMA
 242              		.section	.text.ringComs_DoTransfer,"ax",%progbits
 243              		.align	2
 244              		.global	ringComs_DoTransfer
 245              		.thumb
 246              		.thumb_func
 247              		.type	ringComs_DoTransfer, %function
 248              	ringComs_DoTransfer:
 249              	.LFB58:
  86:.\spi_ring.c  **** 
  87:.\spi_ring.c  **** void ringComs_DoTransfer()
  88:.\spi_ring.c  **** {
 250              		.loc 1 88 0
 251              		.cfi_startproc
 252              		@ args = 0, pretend = 0, frame = 8
ARM GAS  C:\Users\lloyd\AppData\Local\Temp\ccoQPSjg.s 			page 7


 253              		@ frame_needed = 1, uses_anonymous_args = 0
 254 0000 80B5     		push	{r7, lr}
 255              	.LCFI5:
 256              		.cfi_def_cfa_offset 8
 257              		.cfi_offset 7, -8
 258              		.cfi_offset 14, -4
 259 0002 82B0     		sub	sp, sp, #8
 260              	.LCFI6:
 261              		.cfi_def_cfa_offset 16
 262 0004 00AF     		add	r7, sp, #0
 263              	.LCFI7:
 264              		.cfi_def_cfa_register 7
  89:.\spi_ring.c  ****     uint8 *pFirstByte = (uint8*) &(g_spiRing.sensory.sensoryHeader);
 265              		.loc 1 89 0
 266 0006 40F20003 		movw	r3, #:lower16:g_spiRing
 267 000a C0F20003 		movt	r3, #:upper16:g_spiRing
 268 000e 7B60     		str	r3, [r7, #4]
  90:.\spi_ring.c  ****     CyDmaChEnable(spiDmaTransmitChannel, true);
 269              		.loc 1 90 0
 270 0010 40F20003 		movw	r3, #:lower16:spiDmaTransmitChannel
 271 0014 C0F20003 		movt	r3, #:upper16:spiDmaTransmitChannel
 272 0018 1B78     		ldrb	r3, [r3, #0]	@ zero_extendqisi2
 273 001a 1846     		mov	r0, r3
 274 001c 4FF00101 		mov	r1, #1
 275 0020 FFF7FEFF 		bl	CyDmaChEnable
  91:.\spi_ring.c  ****     CyDmaChEnable(spiDmaReceiveChannel, true);
 276              		.loc 1 91 0
 277 0024 40F20003 		movw	r3, #:lower16:spiDmaReceiveChannel
 278 0028 C0F20003 		movt	r3, #:upper16:spiDmaReceiveChannel
 279 002c 1B78     		ldrb	r3, [r3, #0]	@ zero_extendqisi2
 280 002e 1846     		mov	r0, r3
 281 0030 4FF00101 		mov	r1, #1
 282 0034 FFF7FEFF 		bl	CyDmaChEnable
  92:.\spi_ring.c  ****     
  93:.\spi_ring.c  ****     PiComs_WriteTxDataZero(*pFirstByte);
 283              		.loc 1 93 0
 284 0038 7B68     		ldr	r3, [r7, #4]
 285 003a 1B78     		ldrb	r3, [r3, #0]	@ zero_extendqisi2
 286 003c 1846     		mov	r0, r3
 287 003e FFF7FEFF 		bl	PiComs_WriteTxDataZero
  94:.\spi_ring.c  **** }
 288              		.loc 1 94 0
 289 0042 07F10807 		add	r7, r7, #8
 290 0046 BD46     		mov	sp, r7
 291 0048 80BD     		pop	{r7, pc}
 292              		.cfi_endproc
 293              	.LFE58:
 294              		.size	ringComs_DoTransfer, .-ringComs_DoTransfer
 295 004a 00BF     		.text
 296              	.Letext0:
 297              		.file 2 "c:\\program files (x86)\\cypress\\psoc creator\\3.0\\psoc creator\\import\\gnu_cs\\arm\\4
 298              		.file 3 ".\\../../Common/ringcoms.h"
 299              		.file 4 "./Generated_Source/PSoC5/cytypes.h"
 300              		.file 5 ".\\bot_psoc.h"
 301              		.file 6 "./Generated_Source/PSoC5/core_cm3.h"