ARM GAS  C:\Users\Lloyd\AppData\Local\Temp\cczxjIIl.s 			page 1


   1              		.syntax unified
   2              		.cpu cortex-m3
   3              		.fpu softvfp
   4              		.eabi_attribute 20, 1
   5              		.eabi_attribute 21, 1
   6              		.eabi_attribute 23, 3
   7              		.eabi_attribute 24, 1
   8              		.eabi_attribute 25, 1
   9              		.eabi_attribute 26, 1
  10              		.eabi_attribute 30, 6
  11              		.eabi_attribute 34, 1
  12              		.eabi_attribute 18, 4
  13              		.thumb
  14              		.file	"SpiXferDone.c"
  15              		.text
  16              	.Ltext0:
  17              		.cfi_sections	.debug_frame
  18              		.section	.text.SpiXferDone_Start,"ax",%progbits
  19              		.align	2
  20              		.global	SpiXferDone_Start
  21              		.thumb
  22              		.thumb_func
  23              		.type	SpiXferDone_Start, %function
  24              	SpiXferDone_Start:
  25              	.LFB0:
  26              		.file 1 ".\\Generated_Source\\PSoC5\\SpiXferDone.c"
   1:.\Generated_Source\PSoC5/SpiXferDone.c **** /*******************************************************************************
   2:.\Generated_Source\PSoC5/SpiXferDone.c **** * File Name: SpiXferDone.c  
   3:.\Generated_Source\PSoC5/SpiXferDone.c **** * Version 1.70
   4:.\Generated_Source\PSoC5/SpiXferDone.c **** *
   5:.\Generated_Source\PSoC5/SpiXferDone.c **** *  Description:
   6:.\Generated_Source\PSoC5/SpiXferDone.c **** *   API for controlling the state of an interrupt.
   7:.\Generated_Source\PSoC5/SpiXferDone.c **** *
   8:.\Generated_Source\PSoC5/SpiXferDone.c **** *
   9:.\Generated_Source\PSoC5/SpiXferDone.c **** *  Note:
  10:.\Generated_Source\PSoC5/SpiXferDone.c **** *
  11:.\Generated_Source\PSoC5/SpiXferDone.c **** ********************************************************************************
  12:.\Generated_Source\PSoC5/SpiXferDone.c **** * Copyright 2008-2012, Cypress Semiconductor Corporation.  All rights reserved.
  13:.\Generated_Source\PSoC5/SpiXferDone.c **** * You may use this file only in accordance with the license, terms, conditions, 
  14:.\Generated_Source\PSoC5/SpiXferDone.c **** * disclaimers, and limitations in the end user license agreement accompanying 
  15:.\Generated_Source\PSoC5/SpiXferDone.c **** * the software package with which this file was provided.
  16:.\Generated_Source\PSoC5/SpiXferDone.c **** *******************************************************************************/
  17:.\Generated_Source\PSoC5/SpiXferDone.c **** 
  18:.\Generated_Source\PSoC5/SpiXferDone.c **** 
  19:.\Generated_Source\PSoC5/SpiXferDone.c **** #include <cydevice_trm.h>
  20:.\Generated_Source\PSoC5/SpiXferDone.c **** #include <CyLib.h>
  21:.\Generated_Source\PSoC5/SpiXferDone.c **** #include <SpiXferDone.h>
  22:.\Generated_Source\PSoC5/SpiXferDone.c **** 
  23:.\Generated_Source\PSoC5/SpiXferDone.c **** #if !defined(SpiXferDone__REMOVED) /* Check for removal by optimization */
  24:.\Generated_Source\PSoC5/SpiXferDone.c **** 
  25:.\Generated_Source\PSoC5/SpiXferDone.c **** /*******************************************************************************
  26:.\Generated_Source\PSoC5/SpiXferDone.c **** *  Place your includes, defines and code here 
  27:.\Generated_Source\PSoC5/SpiXferDone.c **** ********************************************************************************/
  28:.\Generated_Source\PSoC5/SpiXferDone.c **** /* `#START SpiXferDone_intc` */
  29:.\Generated_Source\PSoC5/SpiXferDone.c **** #include "bot_psoc.h"
  30:.\Generated_Source\PSoC5/SpiXferDone.c **** #include "Debug0.h"
  31:.\Generated_Source\PSoC5/SpiXferDone.c **** /* `#END` */
ARM GAS  C:\Users\Lloyd\AppData\Local\Temp\cczxjIIl.s 			page 2


  32:.\Generated_Source\PSoC5/SpiXferDone.c **** 
  33:.\Generated_Source\PSoC5/SpiXferDone.c **** #ifndef CYINT_IRQ_BASE
  34:.\Generated_Source\PSoC5/SpiXferDone.c **** #define CYINT_IRQ_BASE      16
  35:.\Generated_Source\PSoC5/SpiXferDone.c **** #endif /* CYINT_IRQ_BASE */
  36:.\Generated_Source\PSoC5/SpiXferDone.c **** #ifndef CYINT_VECT_TABLE
  37:.\Generated_Source\PSoC5/SpiXferDone.c **** #define CYINT_VECT_TABLE    ((cyisraddress **) CYREG_NVIC_VECT_OFFSET)
  38:.\Generated_Source\PSoC5/SpiXferDone.c **** #endif /* CYINT_VECT_TABLE */
  39:.\Generated_Source\PSoC5/SpiXferDone.c **** 
  40:.\Generated_Source\PSoC5/SpiXferDone.c **** /* Declared in startup, used to set unused interrupts to. */
  41:.\Generated_Source\PSoC5/SpiXferDone.c **** CY_ISR_PROTO(IntDefaultHandler);
  42:.\Generated_Source\PSoC5/SpiXferDone.c **** 
  43:.\Generated_Source\PSoC5/SpiXferDone.c **** 
  44:.\Generated_Source\PSoC5/SpiXferDone.c **** /*******************************************************************************
  45:.\Generated_Source\PSoC5/SpiXferDone.c **** * Function Name: SpiXferDone_Start
  46:.\Generated_Source\PSoC5/SpiXferDone.c **** ********************************************************************************
  47:.\Generated_Source\PSoC5/SpiXferDone.c **** *
  48:.\Generated_Source\PSoC5/SpiXferDone.c **** * Summary:
  49:.\Generated_Source\PSoC5/SpiXferDone.c **** *  Set up the interrupt and enable it.
  50:.\Generated_Source\PSoC5/SpiXferDone.c **** *
  51:.\Generated_Source\PSoC5/SpiXferDone.c **** * Parameters:  
  52:.\Generated_Source\PSoC5/SpiXferDone.c **** *   None
  53:.\Generated_Source\PSoC5/SpiXferDone.c **** *
  54:.\Generated_Source\PSoC5/SpiXferDone.c **** * Return:
  55:.\Generated_Source\PSoC5/SpiXferDone.c **** *   None
  56:.\Generated_Source\PSoC5/SpiXferDone.c **** *
  57:.\Generated_Source\PSoC5/SpiXferDone.c **** *******************************************************************************/
  58:.\Generated_Source\PSoC5/SpiXferDone.c **** void SpiXferDone_Start(void)
  59:.\Generated_Source\PSoC5/SpiXferDone.c **** {
  27              		.loc 1 59 0
  28              		.cfi_startproc
  29              		@ args = 0, pretend = 0, frame = 0
  30              		@ frame_needed = 1, uses_anonymous_args = 0
  31 0000 80B5     		push	{r7, lr}
  32              	.LCFI0:
  33              		.cfi_def_cfa_offset 8
  34              		.cfi_offset 7, -8
  35              		.cfi_offset 14, -4
  36 0002 00AF     		add	r7, sp, #0
  37              	.LCFI1:
  38              		.cfi_def_cfa_register 7
  60:.\Generated_Source\PSoC5/SpiXferDone.c ****     /* For all we know the interrupt is active. */
  61:.\Generated_Source\PSoC5/SpiXferDone.c ****     SpiXferDone_Disable();
  39              		.loc 1 61 0
  40 0004 FFF7FEFF 		bl	SpiXferDone_Disable
  62:.\Generated_Source\PSoC5/SpiXferDone.c **** 
  63:.\Generated_Source\PSoC5/SpiXferDone.c ****     /* Set the ISR to point to the SpiXferDone Interrupt. */
  64:.\Generated_Source\PSoC5/SpiXferDone.c ****     SpiXferDone_SetVector(&SpiXferDone_Interrupt);
  41              		.loc 1 64 0
  42 0008 40F20000 		movw	r0, #:lower16:SpiXferDone_Interrupt
  43 000c C0F20000 		movt	r0, #:upper16:SpiXferDone_Interrupt
  44 0010 FFF7FEFF 		bl	SpiXferDone_SetVector
  65:.\Generated_Source\PSoC5/SpiXferDone.c **** 
  66:.\Generated_Source\PSoC5/SpiXferDone.c ****     /* Set the priority. */
  67:.\Generated_Source\PSoC5/SpiXferDone.c ****     SpiXferDone_SetPriority((uint8)SpiXferDone_INTC_PRIOR_NUMBER);
  45              		.loc 1 67 0
  46 0014 4FF00700 		mov	r0, #7
  47 0018 FFF7FEFF 		bl	SpiXferDone_SetPriority
ARM GAS  C:\Users\Lloyd\AppData\Local\Temp\cczxjIIl.s 			page 3


  68:.\Generated_Source\PSoC5/SpiXferDone.c **** 
  69:.\Generated_Source\PSoC5/SpiXferDone.c ****     /* Enable it. */
  70:.\Generated_Source\PSoC5/SpiXferDone.c ****     SpiXferDone_Enable();
  48              		.loc 1 70 0
  49 001c FFF7FEFF 		bl	SpiXferDone_Enable
  71:.\Generated_Source\PSoC5/SpiXferDone.c **** }
  50              		.loc 1 71 0
  51 0020 80BD     		pop	{r7, pc}
  52              		.cfi_endproc
  53              	.LFE0:
  54              		.size	SpiXferDone_Start, .-SpiXferDone_Start
  55 0022 00BF     		.section	.text.SpiXferDone_StartEx,"ax",%progbits
  56              		.align	2
  57              		.global	SpiXferDone_StartEx
  58              		.thumb
  59              		.thumb_func
  60              		.type	SpiXferDone_StartEx, %function
  61              	SpiXferDone_StartEx:
  62              	.LFB1:
  72:.\Generated_Source\PSoC5/SpiXferDone.c **** 
  73:.\Generated_Source\PSoC5/SpiXferDone.c **** 
  74:.\Generated_Source\PSoC5/SpiXferDone.c **** /*******************************************************************************
  75:.\Generated_Source\PSoC5/SpiXferDone.c **** * Function Name: SpiXferDone_StartEx
  76:.\Generated_Source\PSoC5/SpiXferDone.c **** ********************************************************************************
  77:.\Generated_Source\PSoC5/SpiXferDone.c **** *
  78:.\Generated_Source\PSoC5/SpiXferDone.c **** * Summary:
  79:.\Generated_Source\PSoC5/SpiXferDone.c **** *  Set up the interrupt and enable it.
  80:.\Generated_Source\PSoC5/SpiXferDone.c **** *
  81:.\Generated_Source\PSoC5/SpiXferDone.c **** * Parameters:  
  82:.\Generated_Source\PSoC5/SpiXferDone.c **** *   address: Address of the ISR to set in the interrupt vector table.
  83:.\Generated_Source\PSoC5/SpiXferDone.c **** *
  84:.\Generated_Source\PSoC5/SpiXferDone.c **** * Return:
  85:.\Generated_Source\PSoC5/SpiXferDone.c **** *   None
  86:.\Generated_Source\PSoC5/SpiXferDone.c **** *
  87:.\Generated_Source\PSoC5/SpiXferDone.c **** *******************************************************************************/
  88:.\Generated_Source\PSoC5/SpiXferDone.c **** void SpiXferDone_StartEx(cyisraddress address)
  89:.\Generated_Source\PSoC5/SpiXferDone.c **** {
  63              		.loc 1 89 0
  64              		.cfi_startproc
  65              		@ args = 0, pretend = 0, frame = 8
  66              		@ frame_needed = 1, uses_anonymous_args = 0
  67 0000 80B5     		push	{r7, lr}
  68              	.LCFI2:
  69              		.cfi_def_cfa_offset 8
  70              		.cfi_offset 7, -8
  71              		.cfi_offset 14, -4
  72 0002 82B0     		sub	sp, sp, #8
  73              	.LCFI3:
  74              		.cfi_def_cfa_offset 16
  75 0004 00AF     		add	r7, sp, #0
  76              	.LCFI4:
  77              		.cfi_def_cfa_register 7
  78 0006 7860     		str	r0, [r7, #4]
  90:.\Generated_Source\PSoC5/SpiXferDone.c ****     /* For all we know the interrupt is active. */
  91:.\Generated_Source\PSoC5/SpiXferDone.c ****     SpiXferDone_Disable();
  79              		.loc 1 91 0
  80 0008 FFF7FEFF 		bl	SpiXferDone_Disable
ARM GAS  C:\Users\Lloyd\AppData\Local\Temp\cczxjIIl.s 			page 4


  92:.\Generated_Source\PSoC5/SpiXferDone.c **** 
  93:.\Generated_Source\PSoC5/SpiXferDone.c ****     /* Set the ISR to point to the SpiXferDone Interrupt. */
  94:.\Generated_Source\PSoC5/SpiXferDone.c ****     SpiXferDone_SetVector(address);
  81              		.loc 1 94 0
  82 000c 7868     		ldr	r0, [r7, #4]
  83 000e FFF7FEFF 		bl	SpiXferDone_SetVector
  95:.\Generated_Source\PSoC5/SpiXferDone.c **** 
  96:.\Generated_Source\PSoC5/SpiXferDone.c ****     /* Set the priority. */
  97:.\Generated_Source\PSoC5/SpiXferDone.c ****     SpiXferDone_SetPriority((uint8)SpiXferDone_INTC_PRIOR_NUMBER);
  84              		.loc 1 97 0
  85 0012 4FF00700 		mov	r0, #7
  86 0016 FFF7FEFF 		bl	SpiXferDone_SetPriority
  98:.\Generated_Source\PSoC5/SpiXferDone.c **** 
  99:.\Generated_Source\PSoC5/SpiXferDone.c ****     /* Enable it. */
 100:.\Generated_Source\PSoC5/SpiXferDone.c ****     SpiXferDone_Enable();
  87              		.loc 1 100 0
  88 001a FFF7FEFF 		bl	SpiXferDone_Enable
 101:.\Generated_Source\PSoC5/SpiXferDone.c **** }
  89              		.loc 1 101 0
  90 001e 07F10807 		add	r7, r7, #8
  91 0022 BD46     		mov	sp, r7
  92 0024 80BD     		pop	{r7, pc}
  93              		.cfi_endproc
  94              	.LFE1:
  95              		.size	SpiXferDone_StartEx, .-SpiXferDone_StartEx
  96 0026 00BF     		.section	.text.SpiXferDone_Stop,"ax",%progbits
  97              		.align	2
  98              		.global	SpiXferDone_Stop
  99              		.thumb
 100              		.thumb_func
 101              		.type	SpiXferDone_Stop, %function
 102              	SpiXferDone_Stop:
 103              	.LFB2:
 102:.\Generated_Source\PSoC5/SpiXferDone.c **** 
 103:.\Generated_Source\PSoC5/SpiXferDone.c **** 
 104:.\Generated_Source\PSoC5/SpiXferDone.c **** /*******************************************************************************
 105:.\Generated_Source\PSoC5/SpiXferDone.c **** * Function Name: SpiXferDone_Stop
 106:.\Generated_Source\PSoC5/SpiXferDone.c **** ********************************************************************************
 107:.\Generated_Source\PSoC5/SpiXferDone.c **** *
 108:.\Generated_Source\PSoC5/SpiXferDone.c **** * Summary:
 109:.\Generated_Source\PSoC5/SpiXferDone.c **** *   Disables and removes the interrupt.
 110:.\Generated_Source\PSoC5/SpiXferDone.c **** *
 111:.\Generated_Source\PSoC5/SpiXferDone.c **** * Parameters:  
 112:.\Generated_Source\PSoC5/SpiXferDone.c **** *
 113:.\Generated_Source\PSoC5/SpiXferDone.c **** * Return:
 114:.\Generated_Source\PSoC5/SpiXferDone.c **** *   None
 115:.\Generated_Source\PSoC5/SpiXferDone.c **** *
 116:.\Generated_Source\PSoC5/SpiXferDone.c **** *******************************************************************************/
 117:.\Generated_Source\PSoC5/SpiXferDone.c **** void SpiXferDone_Stop(void)
 118:.\Generated_Source\PSoC5/SpiXferDone.c **** {
 104              		.loc 1 118 0
 105              		.cfi_startproc
 106              		@ args = 0, pretend = 0, frame = 0
 107              		@ frame_needed = 1, uses_anonymous_args = 0
 108 0000 80B5     		push	{r7, lr}
 109              	.LCFI5:
 110              		.cfi_def_cfa_offset 8
ARM GAS  C:\Users\Lloyd\AppData\Local\Temp\cczxjIIl.s 			page 5


 111              		.cfi_offset 7, -8
 112              		.cfi_offset 14, -4
 113 0002 00AF     		add	r7, sp, #0
 114              	.LCFI6:
 115              		.cfi_def_cfa_register 7
 119:.\Generated_Source\PSoC5/SpiXferDone.c ****     /* Disable this interrupt. */
 120:.\Generated_Source\PSoC5/SpiXferDone.c ****     SpiXferDone_Disable();
 116              		.loc 1 120 0
 117 0004 FFF7FEFF 		bl	SpiXferDone_Disable
 121:.\Generated_Source\PSoC5/SpiXferDone.c **** 
 122:.\Generated_Source\PSoC5/SpiXferDone.c ****     /* Set the ISR to point to the passive one. */
 123:.\Generated_Source\PSoC5/SpiXferDone.c ****     SpiXferDone_SetVector(&IntDefaultHandler);
 118              		.loc 1 123 0
 119 0008 40F20000 		movw	r0, #:lower16:IntDefaultHandler
 120 000c C0F20000 		movt	r0, #:upper16:IntDefaultHandler
 121 0010 FFF7FEFF 		bl	SpiXferDone_SetVector
 124:.\Generated_Source\PSoC5/SpiXferDone.c **** }
 122              		.loc 1 124 0
 123 0014 80BD     		pop	{r7, pc}
 124              		.cfi_endproc
 125              	.LFE2:
 126              		.size	SpiXferDone_Stop, .-SpiXferDone_Stop
 127 0016 00BF     		.section	.text.SpiXferDone_Interrupt,"ax",%progbits
 128              		.align	2
 129              		.global	SpiXferDone_Interrupt
 130              		.thumb
 131              		.thumb_func
 132              		.type	SpiXferDone_Interrupt, %function
 133              	SpiXferDone_Interrupt:
 134              	.LFB3:
 125:.\Generated_Source\PSoC5/SpiXferDone.c **** 
 126:.\Generated_Source\PSoC5/SpiXferDone.c **** 
 127:.\Generated_Source\PSoC5/SpiXferDone.c **** /*******************************************************************************
 128:.\Generated_Source\PSoC5/SpiXferDone.c **** * Function Name: SpiXferDone_Interrupt
 129:.\Generated_Source\PSoC5/SpiXferDone.c **** ********************************************************************************
 130:.\Generated_Source\PSoC5/SpiXferDone.c **** *
 131:.\Generated_Source\PSoC5/SpiXferDone.c **** * Summary:
 132:.\Generated_Source\PSoC5/SpiXferDone.c **** *   The default Interrupt Service Routine for SpiXferDone.
 133:.\Generated_Source\PSoC5/SpiXferDone.c **** *
 134:.\Generated_Source\PSoC5/SpiXferDone.c **** *   Add custom code between the coments to keep the next version of this file
 135:.\Generated_Source\PSoC5/SpiXferDone.c **** *   from over writting your code.
 136:.\Generated_Source\PSoC5/SpiXferDone.c **** *
 137:.\Generated_Source\PSoC5/SpiXferDone.c **** * Parameters:  
 138:.\Generated_Source\PSoC5/SpiXferDone.c **** *
 139:.\Generated_Source\PSoC5/SpiXferDone.c **** * Return:
 140:.\Generated_Source\PSoC5/SpiXferDone.c **** *   None
 141:.\Generated_Source\PSoC5/SpiXferDone.c **** *
 142:.\Generated_Source\PSoC5/SpiXferDone.c **** *******************************************************************************/
 143:.\Generated_Source\PSoC5/SpiXferDone.c **** CY_ISR(SpiXferDone_Interrupt)
 144:.\Generated_Source\PSoC5/SpiXferDone.c **** {
 135              		.loc 1 144 0
 136              		.cfi_startproc
 137              		@ args = 0, pretend = 0, frame = 0
 138              		@ frame_needed = 1, uses_anonymous_args = 0
 139              		@ link register save eliminated.
 140 0000 80B4     		push	{r7}
 141              	.LCFI7:
ARM GAS  C:\Users\Lloyd\AppData\Local\Temp\cczxjIIl.s 			page 6


 142              		.cfi_def_cfa_offset 4
 143              		.cfi_offset 7, -4
 144 0002 00AF     		add	r7, sp, #0
 145              	.LCFI8:
 146              		.cfi_def_cfa_register 7
 145:.\Generated_Source\PSoC5/SpiXferDone.c ****     /*  Place your Interrupt code here. */
 146:.\Generated_Source\PSoC5/SpiXferDone.c ****     /* `#START SpiXferDone_Interrupt` */
 147:.\Generated_Source\PSoC5/SpiXferDone.c ****     g_spiReady = true;
 147              		.loc 1 147 0
 148 0004 40F20003 		movw	r3, #:lower16:g_spiReady
 149 0008 C0F20003 		movt	r3, #:upper16:g_spiReady
 150 000c 4FF00102 		mov	r2, #1
 151 0010 1A70     		strb	r2, [r3, #0]
 148:.\Generated_Source\PSoC5/SpiXferDone.c ****     /* `#END` */
 149:.\Generated_Source\PSoC5/SpiXferDone.c **** }
 152              		.loc 1 149 0
 153 0012 BD46     		mov	sp, r7
 154 0014 80BC     		pop	{r7}
 155 0016 7047     		bx	lr
 156              		.cfi_endproc
 157              	.LFE3:
 158              		.size	SpiXferDone_Interrupt, .-SpiXferDone_Interrupt
 159              		.section	.text.SpiXferDone_SetVector,"ax",%progbits
 160              		.align	2
 161              		.global	SpiXferDone_SetVector
 162              		.thumb
 163              		.thumb_func
 164              		.type	SpiXferDone_SetVector, %function
 165              	SpiXferDone_SetVector:
 166              	.LFB4:
 150:.\Generated_Source\PSoC5/SpiXferDone.c **** 
 151:.\Generated_Source\PSoC5/SpiXferDone.c **** 
 152:.\Generated_Source\PSoC5/SpiXferDone.c **** /*******************************************************************************
 153:.\Generated_Source\PSoC5/SpiXferDone.c **** * Function Name: SpiXferDone_SetVector
 154:.\Generated_Source\PSoC5/SpiXferDone.c **** ********************************************************************************
 155:.\Generated_Source\PSoC5/SpiXferDone.c **** *
 156:.\Generated_Source\PSoC5/SpiXferDone.c **** * Summary:
 157:.\Generated_Source\PSoC5/SpiXferDone.c **** *   Change the ISR vector for the Interrupt. Note calling SpiXferDone_Start
 158:.\Generated_Source\PSoC5/SpiXferDone.c **** *   will override any effect this method would have had. To set the vector 
 159:.\Generated_Source\PSoC5/SpiXferDone.c **** *   before the component has been started use SpiXferDone_StartEx instead.
 160:.\Generated_Source\PSoC5/SpiXferDone.c **** *
 161:.\Generated_Source\PSoC5/SpiXferDone.c **** * Parameters:
 162:.\Generated_Source\PSoC5/SpiXferDone.c **** *   address: Address of the ISR to set in the interrupt vector table.
 163:.\Generated_Source\PSoC5/SpiXferDone.c **** *
 164:.\Generated_Source\PSoC5/SpiXferDone.c **** * Return:
 165:.\Generated_Source\PSoC5/SpiXferDone.c **** *   None
 166:.\Generated_Source\PSoC5/SpiXferDone.c **** *
 167:.\Generated_Source\PSoC5/SpiXferDone.c **** *******************************************************************************/
 168:.\Generated_Source\PSoC5/SpiXferDone.c **** void SpiXferDone_SetVector(cyisraddress address)
 169:.\Generated_Source\PSoC5/SpiXferDone.c **** {
 167              		.loc 1 169 0
 168              		.cfi_startproc
 169              		@ args = 0, pretend = 0, frame = 16
 170              		@ frame_needed = 1, uses_anonymous_args = 0
 171              		@ link register save eliminated.
 172 0000 80B4     		push	{r7}
 173              	.LCFI9:
ARM GAS  C:\Users\Lloyd\AppData\Local\Temp\cczxjIIl.s 			page 7


 174              		.cfi_def_cfa_offset 4
 175              		.cfi_offset 7, -4
 176 0002 85B0     		sub	sp, sp, #20
 177              	.LCFI10:
 178              		.cfi_def_cfa_offset 24
 179 0004 00AF     		add	r7, sp, #0
 180              	.LCFI11:
 181              		.cfi_def_cfa_register 7
 182 0006 7860     		str	r0, [r7, #4]
 170:.\Generated_Source\PSoC5/SpiXferDone.c ****     cyisraddress * ramVectorTable;
 171:.\Generated_Source\PSoC5/SpiXferDone.c **** 
 172:.\Generated_Source\PSoC5/SpiXferDone.c ****     ramVectorTable = (cyisraddress *) *CYINT_VECT_TABLE;
 183              		.loc 1 172 0
 184 0008 4EF60853 		movw	r3, #60680
 185 000c CEF20003 		movt	r3, 57344
 186 0010 1B68     		ldr	r3, [r3, #0]
 187 0012 FB60     		str	r3, [r7, #12]
 173:.\Generated_Source\PSoC5/SpiXferDone.c **** 
 174:.\Generated_Source\PSoC5/SpiXferDone.c ****     ramVectorTable[CYINT_IRQ_BASE + (uint32)SpiXferDone__INTC_NUMBER] = address;
 188              		.loc 1 174 0
 189 0014 FB68     		ldr	r3, [r7, #12]
 190 0016 03F14003 		add	r3, r3, #64
 191 001a 7A68     		ldr	r2, [r7, #4]
 192 001c 1A60     		str	r2, [r3, #0]
 175:.\Generated_Source\PSoC5/SpiXferDone.c **** }
 193              		.loc 1 175 0
 194 001e 07F11407 		add	r7, r7, #20
 195 0022 BD46     		mov	sp, r7
 196 0024 80BC     		pop	{r7}
 197 0026 7047     		bx	lr
 198              		.cfi_endproc
 199              	.LFE4:
 200              		.size	SpiXferDone_SetVector, .-SpiXferDone_SetVector
 201              		.section	.text.SpiXferDone_GetVector,"ax",%progbits
 202              		.align	2
 203              		.global	SpiXferDone_GetVector
 204              		.thumb
 205              		.thumb_func
 206              		.type	SpiXferDone_GetVector, %function
 207              	SpiXferDone_GetVector:
 208              	.LFB5:
 176:.\Generated_Source\PSoC5/SpiXferDone.c **** 
 177:.\Generated_Source\PSoC5/SpiXferDone.c **** 
 178:.\Generated_Source\PSoC5/SpiXferDone.c **** /*******************************************************************************
 179:.\Generated_Source\PSoC5/SpiXferDone.c **** * Function Name: SpiXferDone_GetVector
 180:.\Generated_Source\PSoC5/SpiXferDone.c **** ********************************************************************************
 181:.\Generated_Source\PSoC5/SpiXferDone.c **** *
 182:.\Generated_Source\PSoC5/SpiXferDone.c **** * Summary:
 183:.\Generated_Source\PSoC5/SpiXferDone.c **** *   Gets the "address" of the current ISR vector for the Interrupt.
 184:.\Generated_Source\PSoC5/SpiXferDone.c **** *
 185:.\Generated_Source\PSoC5/SpiXferDone.c **** * Parameters:
 186:.\Generated_Source\PSoC5/SpiXferDone.c **** *   None
 187:.\Generated_Source\PSoC5/SpiXferDone.c **** *
 188:.\Generated_Source\PSoC5/SpiXferDone.c **** * Return:
 189:.\Generated_Source\PSoC5/SpiXferDone.c **** *   Address of the ISR in the interrupt vector table.
 190:.\Generated_Source\PSoC5/SpiXferDone.c **** *
 191:.\Generated_Source\PSoC5/SpiXferDone.c **** *******************************************************************************/
ARM GAS  C:\Users\Lloyd\AppData\Local\Temp\cczxjIIl.s 			page 8


 192:.\Generated_Source\PSoC5/SpiXferDone.c **** cyisraddress SpiXferDone_GetVector(void)
 193:.\Generated_Source\PSoC5/SpiXferDone.c **** {
 209              		.loc 1 193 0
 210              		.cfi_startproc
 211              		@ args = 0, pretend = 0, frame = 8
 212              		@ frame_needed = 1, uses_anonymous_args = 0
 213              		@ link register save eliminated.
 214 0000 80B4     		push	{r7}
 215              	.LCFI12:
 216              		.cfi_def_cfa_offset 4
 217              		.cfi_offset 7, -4
 218 0002 83B0     		sub	sp, sp, #12
 219              	.LCFI13:
 220              		.cfi_def_cfa_offset 16
 221 0004 00AF     		add	r7, sp, #0
 222              	.LCFI14:
 223              		.cfi_def_cfa_register 7
 194:.\Generated_Source\PSoC5/SpiXferDone.c ****     cyisraddress * ramVectorTable;
 195:.\Generated_Source\PSoC5/SpiXferDone.c **** 
 196:.\Generated_Source\PSoC5/SpiXferDone.c ****     ramVectorTable = (cyisraddress *) *CYINT_VECT_TABLE;
 224              		.loc 1 196 0
 225 0006 4EF60853 		movw	r3, #60680
 226 000a CEF20003 		movt	r3, 57344
 227 000e 1B68     		ldr	r3, [r3, #0]
 228 0010 7B60     		str	r3, [r7, #4]
 197:.\Generated_Source\PSoC5/SpiXferDone.c **** 
 198:.\Generated_Source\PSoC5/SpiXferDone.c ****     return ramVectorTable[CYINT_IRQ_BASE + (uint32)SpiXferDone__INTC_NUMBER];
 229              		.loc 1 198 0
 230 0012 7B68     		ldr	r3, [r7, #4]
 231 0014 1B6C     		ldr	r3, [r3, #64]
 199:.\Generated_Source\PSoC5/SpiXferDone.c **** }
 232              		.loc 1 199 0
 233 0016 1846     		mov	r0, r3
 234 0018 07F10C07 		add	r7, r7, #12
 235 001c BD46     		mov	sp, r7
 236 001e 80BC     		pop	{r7}
 237 0020 7047     		bx	lr
 238              		.cfi_endproc
 239              	.LFE5:
 240              		.size	SpiXferDone_GetVector, .-SpiXferDone_GetVector
 241 0022 00BF     		.section	.text.SpiXferDone_SetPriority,"ax",%progbits
 242              		.align	2
 243              		.global	SpiXferDone_SetPriority
 244              		.thumb
 245              		.thumb_func
 246              		.type	SpiXferDone_SetPriority, %function
 247              	SpiXferDone_SetPriority:
 248              	.LFB6:
 200:.\Generated_Source\PSoC5/SpiXferDone.c **** 
 201:.\Generated_Source\PSoC5/SpiXferDone.c **** 
 202:.\Generated_Source\PSoC5/SpiXferDone.c **** /*******************************************************************************
 203:.\Generated_Source\PSoC5/SpiXferDone.c **** * Function Name: SpiXferDone_SetPriority
 204:.\Generated_Source\PSoC5/SpiXferDone.c **** ********************************************************************************
 205:.\Generated_Source\PSoC5/SpiXferDone.c **** *
 206:.\Generated_Source\PSoC5/SpiXferDone.c **** * Summary:
 207:.\Generated_Source\PSoC5/SpiXferDone.c **** *   Sets the Priority of the Interrupt. Note calling SpiXferDone_Start
 208:.\Generated_Source\PSoC5/SpiXferDone.c **** *   or SpiXferDone_StartEx will override any effect this method 
ARM GAS  C:\Users\Lloyd\AppData\Local\Temp\cczxjIIl.s 			page 9


 209:.\Generated_Source\PSoC5/SpiXferDone.c **** *   would have had. This method should only be called after 
 210:.\Generated_Source\PSoC5/SpiXferDone.c **** *   SpiXferDone_Start or SpiXferDone_StartEx has been called. To set 
 211:.\Generated_Source\PSoC5/SpiXferDone.c **** *   the initial priority for the component use the cydwr file in the tool.
 212:.\Generated_Source\PSoC5/SpiXferDone.c **** *
 213:.\Generated_Source\PSoC5/SpiXferDone.c **** * Parameters:
 214:.\Generated_Source\PSoC5/SpiXferDone.c **** *   priority: Priority of the interrupt. 0 - 7, 0 being the highest.
 215:.\Generated_Source\PSoC5/SpiXferDone.c **** *
 216:.\Generated_Source\PSoC5/SpiXferDone.c **** * Return:
 217:.\Generated_Source\PSoC5/SpiXferDone.c **** *   None
 218:.\Generated_Source\PSoC5/SpiXferDone.c **** *
 219:.\Generated_Source\PSoC5/SpiXferDone.c **** *******************************************************************************/
 220:.\Generated_Source\PSoC5/SpiXferDone.c **** void SpiXferDone_SetPriority(uint8 priority)
 221:.\Generated_Source\PSoC5/SpiXferDone.c **** {
 249              		.loc 1 221 0
 250              		.cfi_startproc
 251              		@ args = 0, pretend = 0, frame = 8
 252              		@ frame_needed = 1, uses_anonymous_args = 0
 253              		@ link register save eliminated.
 254 0000 80B4     		push	{r7}
 255              	.LCFI15:
 256              		.cfi_def_cfa_offset 4
 257              		.cfi_offset 7, -4
 258 0002 83B0     		sub	sp, sp, #12
 259              	.LCFI16:
 260              		.cfi_def_cfa_offset 16
 261 0004 00AF     		add	r7, sp, #0
 262              	.LCFI17:
 263              		.cfi_def_cfa_register 7
 264 0006 0346     		mov	r3, r0
 265 0008 FB71     		strb	r3, [r7, #7]
 222:.\Generated_Source\PSoC5/SpiXferDone.c ****     *SpiXferDone_INTC_PRIOR = priority << 5;
 266              		.loc 1 222 0
 267 000a 4FF46443 		mov	r3, #58368
 268 000e CEF20003 		movt	r3, 57344
 269 0012 FA79     		ldrb	r2, [r7, #7]
 270 0014 4FEA4212 		lsl	r2, r2, #5
 271 0018 D2B2     		uxtb	r2, r2
 272 001a 1A70     		strb	r2, [r3, #0]
 223:.\Generated_Source\PSoC5/SpiXferDone.c **** }
 273              		.loc 1 223 0
 274 001c 07F10C07 		add	r7, r7, #12
 275 0020 BD46     		mov	sp, r7
 276 0022 80BC     		pop	{r7}
 277 0024 7047     		bx	lr
 278              		.cfi_endproc
 279              	.LFE6:
 280              		.size	SpiXferDone_SetPriority, .-SpiXferDone_SetPriority
 281 0026 00BF     		.section	.text.SpiXferDone_GetPriority,"ax",%progbits
 282              		.align	2
 283              		.global	SpiXferDone_GetPriority
 284              		.thumb
 285              		.thumb_func
 286              		.type	SpiXferDone_GetPriority, %function
 287              	SpiXferDone_GetPriority:
 288              	.LFB7:
 224:.\Generated_Source\PSoC5/SpiXferDone.c **** 
 225:.\Generated_Source\PSoC5/SpiXferDone.c **** 
ARM GAS  C:\Users\Lloyd\AppData\Local\Temp\cczxjIIl.s 			page 10


 226:.\Generated_Source\PSoC5/SpiXferDone.c **** /*******************************************************************************
 227:.\Generated_Source\PSoC5/SpiXferDone.c **** * Function Name: SpiXferDone_GetPriority
 228:.\Generated_Source\PSoC5/SpiXferDone.c **** ********************************************************************************
 229:.\Generated_Source\PSoC5/SpiXferDone.c **** *
 230:.\Generated_Source\PSoC5/SpiXferDone.c **** * Summary:
 231:.\Generated_Source\PSoC5/SpiXferDone.c **** *   Gets the Priority of the Interrupt.
 232:.\Generated_Source\PSoC5/SpiXferDone.c **** *
 233:.\Generated_Source\PSoC5/SpiXferDone.c **** * Parameters:
 234:.\Generated_Source\PSoC5/SpiXferDone.c **** *   None
 235:.\Generated_Source\PSoC5/SpiXferDone.c **** *
 236:.\Generated_Source\PSoC5/SpiXferDone.c **** * Return:
 237:.\Generated_Source\PSoC5/SpiXferDone.c **** *   Priority of the interrupt. 0 - 7, 0 being the highest.
 238:.\Generated_Source\PSoC5/SpiXferDone.c **** *
 239:.\Generated_Source\PSoC5/SpiXferDone.c **** *******************************************************************************/
 240:.\Generated_Source\PSoC5/SpiXferDone.c **** uint8 SpiXferDone_GetPriority(void)
 241:.\Generated_Source\PSoC5/SpiXferDone.c **** {
 289              		.loc 1 241 0
 290              		.cfi_startproc
 291              		@ args = 0, pretend = 0, frame = 8
 292              		@ frame_needed = 1, uses_anonymous_args = 0
 293              		@ link register save eliminated.
 294 0000 80B4     		push	{r7}
 295              	.LCFI18:
 296              		.cfi_def_cfa_offset 4
 297              		.cfi_offset 7, -4
 298 0002 83B0     		sub	sp, sp, #12
 299              	.LCFI19:
 300              		.cfi_def_cfa_offset 16
 301 0004 00AF     		add	r7, sp, #0
 302              	.LCFI20:
 303              		.cfi_def_cfa_register 7
 242:.\Generated_Source\PSoC5/SpiXferDone.c ****     uint8 priority;
 243:.\Generated_Source\PSoC5/SpiXferDone.c **** 
 244:.\Generated_Source\PSoC5/SpiXferDone.c **** 
 245:.\Generated_Source\PSoC5/SpiXferDone.c ****     priority = *SpiXferDone_INTC_PRIOR >> 5;
 304              		.loc 1 245 0
 305 0006 4FF46443 		mov	r3, #58368
 306 000a CEF20003 		movt	r3, 57344
 307 000e 1B78     		ldrb	r3, [r3, #0]
 308 0010 DBB2     		uxtb	r3, r3
 309 0012 4FEA5313 		lsr	r3, r3, #5
 310 0016 FB71     		strb	r3, [r7, #7]
 246:.\Generated_Source\PSoC5/SpiXferDone.c **** 
 247:.\Generated_Source\PSoC5/SpiXferDone.c ****     return priority;
 311              		.loc 1 247 0
 312 0018 FB79     		ldrb	r3, [r7, #7]	@ zero_extendqisi2
 248:.\Generated_Source\PSoC5/SpiXferDone.c **** }
 313              		.loc 1 248 0
 314 001a 1846     		mov	r0, r3
 315 001c 07F10C07 		add	r7, r7, #12
 316 0020 BD46     		mov	sp, r7
 317 0022 80BC     		pop	{r7}
 318 0024 7047     		bx	lr
 319              		.cfi_endproc
 320              	.LFE7:
 321              		.size	SpiXferDone_GetPriority, .-SpiXferDone_GetPriority
 322 0026 00BF     		.section	.text.SpiXferDone_Enable,"ax",%progbits
ARM GAS  C:\Users\Lloyd\AppData\Local\Temp\cczxjIIl.s 			page 11


 323              		.align	2
 324              		.global	SpiXferDone_Enable
 325              		.thumb
 326              		.thumb_func
 327              		.type	SpiXferDone_Enable, %function
 328              	SpiXferDone_Enable:
 329              	.LFB8:
 249:.\Generated_Source\PSoC5/SpiXferDone.c **** 
 250:.\Generated_Source\PSoC5/SpiXferDone.c **** 
 251:.\Generated_Source\PSoC5/SpiXferDone.c **** /*******************************************************************************
 252:.\Generated_Source\PSoC5/SpiXferDone.c **** * Function Name: SpiXferDone_Enable
 253:.\Generated_Source\PSoC5/SpiXferDone.c **** ********************************************************************************
 254:.\Generated_Source\PSoC5/SpiXferDone.c **** *
 255:.\Generated_Source\PSoC5/SpiXferDone.c **** * Summary:
 256:.\Generated_Source\PSoC5/SpiXferDone.c **** *   Enables the interrupt.
 257:.\Generated_Source\PSoC5/SpiXferDone.c **** *
 258:.\Generated_Source\PSoC5/SpiXferDone.c **** * Parameters:
 259:.\Generated_Source\PSoC5/SpiXferDone.c **** *   None
 260:.\Generated_Source\PSoC5/SpiXferDone.c **** *
 261:.\Generated_Source\PSoC5/SpiXferDone.c **** * Return:
 262:.\Generated_Source\PSoC5/SpiXferDone.c **** *   None
 263:.\Generated_Source\PSoC5/SpiXferDone.c **** *
 264:.\Generated_Source\PSoC5/SpiXferDone.c **** *******************************************************************************/
 265:.\Generated_Source\PSoC5/SpiXferDone.c **** void SpiXferDone_Enable(void)
 266:.\Generated_Source\PSoC5/SpiXferDone.c **** {
 330              		.loc 1 266 0
 331              		.cfi_startproc
 332              		@ args = 0, pretend = 0, frame = 0
 333              		@ frame_needed = 1, uses_anonymous_args = 0
 334              		@ link register save eliminated.
 335 0000 80B4     		push	{r7}
 336              	.LCFI21:
 337              		.cfi_def_cfa_offset 4
 338              		.cfi_offset 7, -4
 339 0002 00AF     		add	r7, sp, #0
 340              	.LCFI22:
 341              		.cfi_def_cfa_register 7
 267:.\Generated_Source\PSoC5/SpiXferDone.c ****     /* Enable the general interrupt. */
 268:.\Generated_Source\PSoC5/SpiXferDone.c ****     *SpiXferDone_INTC_SET_EN = SpiXferDone__INTC_MASK;
 342              		.loc 1 268 0
 343 0004 4FF46143 		mov	r3, #57600
 344 0008 CEF20003 		movt	r3, 57344
 345 000c 4FF00102 		mov	r2, #1
 346 0010 1A60     		str	r2, [r3, #0]
 269:.\Generated_Source\PSoC5/SpiXferDone.c **** }
 347              		.loc 1 269 0
 348 0012 BD46     		mov	sp, r7
 349 0014 80BC     		pop	{r7}
 350 0016 7047     		bx	lr
 351              		.cfi_endproc
 352              	.LFE8:
 353              		.size	SpiXferDone_Enable, .-SpiXferDone_Enable
 354              		.section	.text.SpiXferDone_GetState,"ax",%progbits
 355              		.align	2
 356              		.global	SpiXferDone_GetState
 357              		.thumb
 358              		.thumb_func
ARM GAS  C:\Users\Lloyd\AppData\Local\Temp\cczxjIIl.s 			page 12


 359              		.type	SpiXferDone_GetState, %function
 360              	SpiXferDone_GetState:
 361              	.LFB9:
 270:.\Generated_Source\PSoC5/SpiXferDone.c **** 
 271:.\Generated_Source\PSoC5/SpiXferDone.c **** 
 272:.\Generated_Source\PSoC5/SpiXferDone.c **** /*******************************************************************************
 273:.\Generated_Source\PSoC5/SpiXferDone.c **** * Function Name: SpiXferDone_GetState
 274:.\Generated_Source\PSoC5/SpiXferDone.c **** ********************************************************************************
 275:.\Generated_Source\PSoC5/SpiXferDone.c **** *
 276:.\Generated_Source\PSoC5/SpiXferDone.c **** * Summary:
 277:.\Generated_Source\PSoC5/SpiXferDone.c **** *   Gets the state (enabled, disabled) of the Interrupt.
 278:.\Generated_Source\PSoC5/SpiXferDone.c **** *
 279:.\Generated_Source\PSoC5/SpiXferDone.c **** * Parameters:
 280:.\Generated_Source\PSoC5/SpiXferDone.c **** *   None
 281:.\Generated_Source\PSoC5/SpiXferDone.c **** *
 282:.\Generated_Source\PSoC5/SpiXferDone.c **** * Return:
 283:.\Generated_Source\PSoC5/SpiXferDone.c **** *   1 if enabled, 0 if disabled.
 284:.\Generated_Source\PSoC5/SpiXferDone.c **** *
 285:.\Generated_Source\PSoC5/SpiXferDone.c **** *******************************************************************************/
 286:.\Generated_Source\PSoC5/SpiXferDone.c **** uint8 SpiXferDone_GetState(void)
 287:.\Generated_Source\PSoC5/SpiXferDone.c **** {
 362              		.loc 1 287 0
 363              		.cfi_startproc
 364              		@ args = 0, pretend = 0, frame = 0
 365              		@ frame_needed = 1, uses_anonymous_args = 0
 366              		@ link register save eliminated.
 367 0000 80B4     		push	{r7}
 368              	.LCFI23:
 369              		.cfi_def_cfa_offset 4
 370              		.cfi_offset 7, -4
 371 0002 00AF     		add	r7, sp, #0
 372              	.LCFI24:
 373              		.cfi_def_cfa_register 7
 288:.\Generated_Source\PSoC5/SpiXferDone.c ****     /* Get the state of the general interrupt. */
 289:.\Generated_Source\PSoC5/SpiXferDone.c ****     return ((*SpiXferDone_INTC_SET_EN & (uint32)SpiXferDone__INTC_MASK) != 0u) ? 1u:0u;
 374              		.loc 1 289 0
 375 0004 4FF46143 		mov	r3, #57600
 376 0008 CEF20003 		movt	r3, 57344
 377 000c 1B68     		ldr	r3, [r3, #0]
 378 000e DBB2     		uxtb	r3, r3
 379 0010 03F00103 		and	r3, r3, #1
 380 0014 DBB2     		uxtb	r3, r3
 290:.\Generated_Source\PSoC5/SpiXferDone.c **** }
 381              		.loc 1 290 0
 382 0016 1846     		mov	r0, r3
 383 0018 BD46     		mov	sp, r7
 384 001a 80BC     		pop	{r7}
 385 001c 7047     		bx	lr
 386              		.cfi_endproc
 387              	.LFE9:
 388              		.size	SpiXferDone_GetState, .-SpiXferDone_GetState
 389 001e 00BF     		.section	.text.SpiXferDone_Disable,"ax",%progbits
 390              		.align	2
 391              		.global	SpiXferDone_Disable
 392              		.thumb
 393              		.thumb_func
 394              		.type	SpiXferDone_Disable, %function
ARM GAS  C:\Users\Lloyd\AppData\Local\Temp\cczxjIIl.s 			page 13


 395              	SpiXferDone_Disable:
 396              	.LFB10:
 291:.\Generated_Source\PSoC5/SpiXferDone.c **** 
 292:.\Generated_Source\PSoC5/SpiXferDone.c **** 
 293:.\Generated_Source\PSoC5/SpiXferDone.c **** /*******************************************************************************
 294:.\Generated_Source\PSoC5/SpiXferDone.c **** * Function Name: SpiXferDone_Disable
 295:.\Generated_Source\PSoC5/SpiXferDone.c **** ********************************************************************************
 296:.\Generated_Source\PSoC5/SpiXferDone.c **** *
 297:.\Generated_Source\PSoC5/SpiXferDone.c **** * Summary:
 298:.\Generated_Source\PSoC5/SpiXferDone.c **** *   Disables the Interrupt.
 299:.\Generated_Source\PSoC5/SpiXferDone.c **** *
 300:.\Generated_Source\PSoC5/SpiXferDone.c **** * Parameters:
 301:.\Generated_Source\PSoC5/SpiXferDone.c **** *   None
 302:.\Generated_Source\PSoC5/SpiXferDone.c **** *
 303:.\Generated_Source\PSoC5/SpiXferDone.c **** * Return:
 304:.\Generated_Source\PSoC5/SpiXferDone.c **** *   None
 305:.\Generated_Source\PSoC5/SpiXferDone.c **** *
 306:.\Generated_Source\PSoC5/SpiXferDone.c **** *******************************************************************************/
 307:.\Generated_Source\PSoC5/SpiXferDone.c **** void SpiXferDone_Disable(void)
 308:.\Generated_Source\PSoC5/SpiXferDone.c **** {
 397              		.loc 1 308 0
 398              		.cfi_startproc
 399              		@ args = 0, pretend = 0, frame = 0
 400              		@ frame_needed = 1, uses_anonymous_args = 0
 401              		@ link register save eliminated.
 402 0000 80B4     		push	{r7}
 403              	.LCFI25:
 404              		.cfi_def_cfa_offset 4
 405              		.cfi_offset 7, -4
 406 0002 00AF     		add	r7, sp, #0
 407              	.LCFI26:
 408              		.cfi_def_cfa_register 7
 309:.\Generated_Source\PSoC5/SpiXferDone.c ****     /* Disable the general interrupt. */
 310:.\Generated_Source\PSoC5/SpiXferDone.c ****     *SpiXferDone_INTC_CLR_EN = SpiXferDone__INTC_MASK;
 409              		.loc 1 310 0
 410 0004 4EF28013 		movw	r3, #57728
 411 0008 CEF20003 		movt	r3, 57344
 412 000c 4FF00102 		mov	r2, #1
 413 0010 1A60     		str	r2, [r3, #0]
 311:.\Generated_Source\PSoC5/SpiXferDone.c **** }
 414              		.loc 1 311 0
 415 0012 BD46     		mov	sp, r7
 416 0014 80BC     		pop	{r7}
 417 0016 7047     		bx	lr
 418              		.cfi_endproc
 419              	.LFE10:
 420              		.size	SpiXferDone_Disable, .-SpiXferDone_Disable
 421              		.section	.text.SpiXferDone_SetPending,"ax",%progbits
 422              		.align	2
 423              		.global	SpiXferDone_SetPending
 424              		.thumb
 425              		.thumb_func
 426              		.type	SpiXferDone_SetPending, %function
 427              	SpiXferDone_SetPending:
 428              	.LFB11:
 312:.\Generated_Source\PSoC5/SpiXferDone.c **** 
 313:.\Generated_Source\PSoC5/SpiXferDone.c **** 
ARM GAS  C:\Users\Lloyd\AppData\Local\Temp\cczxjIIl.s 			page 14


 314:.\Generated_Source\PSoC5/SpiXferDone.c **** /*******************************************************************************
 315:.\Generated_Source\PSoC5/SpiXferDone.c **** * Function Name: SpiXferDone_SetPending
 316:.\Generated_Source\PSoC5/SpiXferDone.c **** ********************************************************************************
 317:.\Generated_Source\PSoC5/SpiXferDone.c **** *
 318:.\Generated_Source\PSoC5/SpiXferDone.c **** * Summary:
 319:.\Generated_Source\PSoC5/SpiXferDone.c **** *   Causes the Interrupt to enter the pending state, a software method of
 320:.\Generated_Source\PSoC5/SpiXferDone.c **** *   generating the interrupt.
 321:.\Generated_Source\PSoC5/SpiXferDone.c **** *
 322:.\Generated_Source\PSoC5/SpiXferDone.c **** * Parameters:
 323:.\Generated_Source\PSoC5/SpiXferDone.c **** *   None
 324:.\Generated_Source\PSoC5/SpiXferDone.c **** *
 325:.\Generated_Source\PSoC5/SpiXferDone.c **** * Return:
 326:.\Generated_Source\PSoC5/SpiXferDone.c **** *   None
 327:.\Generated_Source\PSoC5/SpiXferDone.c **** *
 328:.\Generated_Source\PSoC5/SpiXferDone.c **** *******************************************************************************/
 329:.\Generated_Source\PSoC5/SpiXferDone.c **** void SpiXferDone_SetPending(void)
 330:.\Generated_Source\PSoC5/SpiXferDone.c **** {
 429              		.loc 1 330 0
 430              		.cfi_startproc
 431              		@ args = 0, pretend = 0, frame = 0
 432              		@ frame_needed = 1, uses_anonymous_args = 0
 433              		@ link register save eliminated.
 434 0000 80B4     		push	{r7}
 435              	.LCFI27:
 436              		.cfi_def_cfa_offset 4
 437              		.cfi_offset 7, -4
 438 0002 00AF     		add	r7, sp, #0
 439              	.LCFI28:
 440              		.cfi_def_cfa_register 7
 331:.\Generated_Source\PSoC5/SpiXferDone.c ****     *SpiXferDone_INTC_SET_PD = SpiXferDone__INTC_MASK;
 441              		.loc 1 331 0
 442 0004 4FF46243 		mov	r3, #57856
 443 0008 CEF20003 		movt	r3, 57344
 444 000c 4FF00102 		mov	r2, #1
 445 0010 1A60     		str	r2, [r3, #0]
 332:.\Generated_Source\PSoC5/SpiXferDone.c **** }
 446              		.loc 1 332 0
 447 0012 BD46     		mov	sp, r7
 448 0014 80BC     		pop	{r7}
 449 0016 7047     		bx	lr
 450              		.cfi_endproc
 451              	.LFE11:
 452              		.size	SpiXferDone_SetPending, .-SpiXferDone_SetPending
 453              		.section	.text.SpiXferDone_ClearPending,"ax",%progbits
 454              		.align	2
 455              		.global	SpiXferDone_ClearPending
 456              		.thumb
 457              		.thumb_func
 458              		.type	SpiXferDone_ClearPending, %function
 459              	SpiXferDone_ClearPending:
 460              	.LFB12:
 333:.\Generated_Source\PSoC5/SpiXferDone.c **** 
 334:.\Generated_Source\PSoC5/SpiXferDone.c **** 
 335:.\Generated_Source\PSoC5/SpiXferDone.c **** /*******************************************************************************
 336:.\Generated_Source\PSoC5/SpiXferDone.c **** * Function Name: SpiXferDone_ClearPending
 337:.\Generated_Source\PSoC5/SpiXferDone.c **** ********************************************************************************
 338:.\Generated_Source\PSoC5/SpiXferDone.c **** *
ARM GAS  C:\Users\Lloyd\AppData\Local\Temp\cczxjIIl.s 			page 15


 339:.\Generated_Source\PSoC5/SpiXferDone.c **** * Summary:
 340:.\Generated_Source\PSoC5/SpiXferDone.c **** *   Clears a pending interrupt.
 341:.\Generated_Source\PSoC5/SpiXferDone.c **** *
 342:.\Generated_Source\PSoC5/SpiXferDone.c **** * Parameters:
 343:.\Generated_Source\PSoC5/SpiXferDone.c **** *   None
 344:.\Generated_Source\PSoC5/SpiXferDone.c **** *
 345:.\Generated_Source\PSoC5/SpiXferDone.c **** * Return:
 346:.\Generated_Source\PSoC5/SpiXferDone.c **** *   None
 347:.\Generated_Source\PSoC5/SpiXferDone.c **** *
 348:.\Generated_Source\PSoC5/SpiXferDone.c **** *******************************************************************************/
 349:.\Generated_Source\PSoC5/SpiXferDone.c **** void SpiXferDone_ClearPending(void)
 350:.\Generated_Source\PSoC5/SpiXferDone.c **** {
 461              		.loc 1 350 0
 462              		.cfi_startproc
 463              		@ args = 0, pretend = 0, frame = 0
 464              		@ frame_needed = 1, uses_anonymous_args = 0
 465              		@ link register save eliminated.
 466 0000 80B4     		push	{r7}
 467              	.LCFI29:
 468              		.cfi_def_cfa_offset 4
 469              		.cfi_offset 7, -4
 470 0002 00AF     		add	r7, sp, #0
 471              	.LCFI30:
 472              		.cfi_def_cfa_register 7
 351:.\Generated_Source\PSoC5/SpiXferDone.c ****     *SpiXferDone_INTC_CLR_PD = SpiXferDone__INTC_MASK;
 473              		.loc 1 351 0
 474 0004 4EF28023 		movw	r3, #57984
 475 0008 CEF20003 		movt	r3, 57344
 476 000c 4FF00102 		mov	r2, #1
 477 0010 1A60     		str	r2, [r3, #0]
 352:.\Generated_Source\PSoC5/SpiXferDone.c **** }
 478              		.loc 1 352 0
 479 0012 BD46     		mov	sp, r7
 480 0014 80BC     		pop	{r7}
 481 0016 7047     		bx	lr
 482              		.cfi_endproc
 483              	.LFE12:
 484              		.size	SpiXferDone_ClearPending, .-SpiXferDone_ClearPending
 485              		.text
 486              	.Letext0:
 487              		.file 2 "c:\\program files (x86)\\cypress\\psoc creator\\3.0\\psoc creator\\import\\gnu_cs\\arm\\4
 488              		.file 3 "./Generated_Source/PSoC5/cytypes.h"
 489              		.file 4 "./bot_psoc.h"